; Function Attrs: nounwind uwtable
define dso_local void @systable_inplace_update_finish(ptr noundef %0, ptr noundef %1) local_unnamed_addr #0 {
  %3 = load ptr, ptr %0, align 8
  %4 = getelementptr inbounds nuw i8, ptr %0, i64 40
  %5 = load ptr, ptr %4, align 8
  %6 = getelementptr inbounds nuw i8, ptr %5, i64 64
  %7 = load ptr, ptr %6, align 8
  %8 = getelementptr inbounds nuw i8, ptr %5, i64 104
  %9 = load i32, ptr %8, align 8
  tail call void @heap_inplace_update_and_unlock(ptr noundef %3, ptr noundef %7, ptr noundef %1, i32 noundef %9) #7
  tail call void @systable_endscan(ptr noundef nonnull %0)
  ret void
}